target datalayout = "e-m:e-p270:32:32-p271:32:32-p272:64:64-i64:64-i128:128-f80:128-n8:16:32:64-S128"
target triple = "x86_64-pc-linux-gnu"

%struct.hm_header_st = type { i8, i64, i16, i64, i64, i32, %struct.dtls1_retransmit_state }
%struct.dtls1_retransmit_state = type { ptr, ptr }

; Function Attrs: nounwind uwtable
define void @dtls1_get_message_header(ptr noundef %0, ptr noundef %1) #0 {
  %3 = alloca ptr, align 8
  %4 = alloca ptr, align 8
  store ptr %0, ptr %3, align 8, !tbaa !99
  store ptr %1, ptr %4, align 8, !tbaa !100
  %5 = load ptr, ptr %4, align 8, !tbaa !100
  call void @llvm.memset.p0.i64(ptr align 8 %5, i8 0, i64 64, i1 false)
  %6 = load ptr, ptr %3, align 8, !tbaa !99
  %7 = getelementptr inbounds nuw i8, ptr %6, i32 1
  store ptr %7, ptr %3, align 8, !tbaa !99
  %8 = load i8, ptr %6, align 1, !tbaa !21
  %9 = load ptr, ptr %4, align 8, !tbaa !100
  %10 = getelementptr inbounds nuw %struct.hm_header_st, ptr %9, i32 0, i32 0
  store i8 %8, ptr %10, align 8, !tbaa !103
  %11 = load ptr, ptr %3, align 8, !tbaa !99
  %12 = getelementptr inbounds i8, ptr %11, i64 0
  %13 = load i8, ptr %12, align 1, !tbaa !21
  %14 = zext i8 %13 to i64
  %15 = shl i64 %14, 16
  %16 = load ptr, ptr %3, align 8, !tbaa !99
  %17 = getelementptr inbounds i8, ptr %16, i64 1
  %18 = load i8, ptr %17, align 1, !tbaa !21
  %19 = zext i8 %18 to i64
  %20 = shl i64 %19, 8
  %21 = or i64 %15, %20
  %22 = load ptr, ptr %3, align 8, !tbaa !99
  %23 = getelementptr inbounds i8, ptr %22, i64 2
  %24 = load i8, ptr %23, align 1, !tbaa !21
  %25 = zext i8 %24 to i64
  %26 = or i64 %21, %25
  %27 = load ptr, ptr %4, align 8, !tbaa !100
  %28 = getelementptr inbounds nuw %struct.hm_header_st, ptr %27, i32 0, i32 1
  store i64 %26, ptr %28, align 8, !tbaa !104
  %29 = load ptr, ptr %3, align 8, !tbaa !99
  %30 = getelementptr inbounds i8, ptr %29, i64 3
  store ptr %30, ptr %3, align 8, !tbaa !99
  %31 = load ptr, ptr %3, align 8, !tbaa !99
  %32 = getelementptr inbounds i8, ptr %31, i64 0
  %33 = load i8, ptr %32, align 1, !tbaa !21
  %34 = zext i8 %33 to i32
  %35 = shl i32 %34, 8
  %36 = load ptr, ptr %3, align 8, !tbaa !99
  %37 = getelementptr inbounds i8, ptr %36, i64 1
  %38 = load i8, ptr %37, align 1, !tbaa !21
  %39 = zext i8 %38 to i32
  %40 = or i32 %35, %39
  %41 = trunc i32 %40 to i16
  %42 = load ptr, ptr %4, align 8, !tbaa !100
  %43 = getelementptr inbounds nuw %struct.hm_header_st, ptr %42, i32 0, i32 2
  store i16 %41, ptr %43, align 8, !tbaa !105
  %44 = load ptr, ptr %3, align 8, !tbaa !99
  %45 = getelementptr inbounds i8, ptr %44, i64 2
  store ptr %45, ptr %3, align 8, !tbaa !99
  %46 = load ptr, ptr %3, align 8, !tbaa !99
  %47 = getelementptr inbounds i8, ptr %46, i64 0
  %48 = load i8, ptr %47, align 1, !tbaa !21
  %49 = zext i8 %48 to i64
  %50 = shl i64 %49, 16
  %51 = load ptr, ptr %3, align 8, !tbaa !99
  %52 = getelementptr inbounds i8, ptr %51, i64 1
  %53 = load i8, ptr %52, align 1, !tbaa !21
  %54 = zext i8 %53 to i64
  %55 = shl i64 %54, 8
  %56 = or i64 %50, %55
  %57 = load ptr, ptr %3, align 8, !tbaa !99
  %58 = getelementptr inbounds i8, ptr %57, i64 2
  %59 = load i8, ptr %58, align 1, !tbaa !21
  %60 = zext i8 %59 to i64
  %61 = or i64 %56, %60
  %62 = load ptr, ptr %4, align 8, !tbaa !100
  %63 = getelementptr inbounds nuw %struct.hm_header_st, ptr %62, i32 0, i32 3
  store i64 %61, ptr %63, align 8, !tbaa !110
  %64 = load ptr, ptr %3, align 8, !tbaa !99
  %65 = getelementptr inbounds i8, ptr %64, i64 3
  store ptr %65, ptr %3, align 8, !tbaa !99
  %66 = load ptr, ptr %3, align 8, !tbaa !99
  %67 = getelementptr inbounds i8, ptr %66, i64 0
  %68 = load i8, ptr %67, align 1, !tbaa !21
  %69 = zext i8 %68 to i64
  %70 = shl i64 %69, 16
  %71 = load ptr, ptr %3, align 8, !tbaa !99
  %72 = getelementptr inbounds i8, ptr %71, i64 1
  %73 = load i8, ptr %72, align 1, !tbaa !21
  %74 = zext i8 %73 to i64
  %75 = shl i64 %74, 8
  %76 = or i64 %70, %75
  %77 = load ptr, ptr %3, align 8, !tbaa !99
  %78 = getelementptr inbounds i8, ptr %77, i64 2
  %79 = load i8, ptr %78, align 1, !tbaa !21
  %80 = zext i8 %79 to i64
  %81 = or i64 %76, %80
  %82 = load ptr, ptr %4, align 8, !tbaa !100
  %83 = getelementptr inbounds nuw %struct.hm_header_st, ptr %82, i32 0, i32 4
  store i64 %81, ptr %83, align 8, !tbaa !111
  %84 = load ptr, ptr %3, align 8, !tbaa !99
  %85 = getelementptr inbounds i8, ptr %84, i64 3
  store ptr %85, ptr %3, align 8, !tbaa !99
  ret void
}