; Function Attrs: mustprogress nofree norecurse nosync nounwind willreturn memory(argmem: readwrite) uwtable
define void @dtls1_get_message_header(ptr noundef readonly captures(none) %0, ptr noundef writeonly captures(none) initializes((0, 64)) %1) local_unnamed_addr #7 {
  tail call void @llvm.memset.p0.i64(ptr noundef nonnull align 8 dereferenceable(64) %1, i8 0, i64 64, i1 false)
  %3 = getelementptr inbounds nuw i8, ptr %0, i64 1
  %4 = load i8, ptr %0, align 1, !tbaa !95
  store i8 %4, ptr %1, align 8, !tbaa !94
  %5 = load i8, ptr %3, align 1, !tbaa !95
  %6 = zext i8 %5 to i64
  %7 = shl nuw nsw i64 %6, 16
  %8 = getelementptr inbounds nuw i8, ptr %0, i64 2
  %9 = load i8, ptr %8, align 1, !tbaa !95
  %10 = zext i8 %9 to i64
  %11 = shl nuw nsw i64 %10, 8
  %12 = or disjoint i64 %11, %7
  %13 = getelementptr inbounds nuw i8, ptr %0, i64 3
  %14 = load i8, ptr %13, align 1, !tbaa !95
  %15 = zext i8 %14 to i64
  %16 = or disjoint i64 %12, %15
  %17 = getelementptr inbounds nuw i8, ptr %1, i64 8
  store i64 %16, ptr %17, align 8, !tbaa !96
  %18 = getelementptr inbounds nuw i8, ptr %0, i64 4
  %19 = load i8, ptr %18, align 1, !tbaa !95
  %20 = zext i8 %19 to i16
  %21 = shl nuw i16 %20, 8
  %22 = getelementptr inbounds nuw i8, ptr %0, i64 5
  %23 = load i8, ptr %22, align 1, !tbaa !95
  %24 = zext i8 %23 to i16
  %25 = or disjoint i16 %21, %24
  %26 = getelementptr inbounds nuw i8, ptr %1, i64 16
  store i16 %25, ptr %26, align 8, !tbaa !97
  %27 = getelementptr inbounds nuw i8, ptr %0, i64 6
  %28 = load i8, ptr %27, align 1, !tbaa !95
  %29 = zext i8 %28 to i64
  %30 = shl nuw nsw i64 %29, 16
  %31 = getelementptr inbounds nuw i8, ptr %0, i64 7
  %32 = load i8, ptr %31, align 1, !tbaa !95
  %33 = zext i8 %32 to i64
  %34 = shl nuw nsw i64 %33, 8
  %35 = or disjoint i64 %34, %30
  %36 = getelementptr inbounds nuw i8, ptr %0, i64 8
  %37 = load i8, ptr %36, align 1, !tbaa !95
  %38 = zext i8 %37 to i64
  %39 = or disjoint i64 %35, %38
  %40 = getelementptr inbounds nuw i8, ptr %1, i64 24
  store i64 %39, ptr %40, align 8, !tbaa !89
  %41 = getelementptr inbounds nuw i8, ptr %0, i64 9
  %42 = load i8, ptr %41, align 1, !tbaa !95
  %43 = zext i8 %42 to i64
  %44 = shl nuw nsw i64 %43, 16
  %45 = getelementptr inbounds nuw i8, ptr %0, i64 10
  %46 = load i8, ptr %45, align 1, !tbaa !95
  %47 = zext i8 %46 to i64
  %48 = shl nuw nsw i64 %47, 8
  %49 = or disjoint i64 %48, %44
  %50 = getelementptr inbounds nuw i8, ptr %0, i64 11
  %51 = load i8, ptr %50, align 1, !tbaa !95
  %52 = zext i8 %51 to i64
  %53 = or disjoint i64 %49, %52
  %54 = getelementptr inbounds nuw i8, ptr %1, i64 32
  store i64 %53, ptr %54, align 8, !tbaa !90
  ret void
}